; Function Attrs: mustprogress nofree norecurse nosync nounwind willreturn memory(argmem: write) uwtable
define void @_ZN11ComprDataIO17SetUnpackToMemoryEPhj(ptr noundef nonnull writeonly align 8 captures(none) dereferenceable(266) initializes((24, 25), (32, 48)) %0, ptr noundef %1, i32 noundef %2) local_unnamed_addr #4 align 2 {
  %4 = getelementptr inbounds nuw i8, ptr %0, i64 24
  store i8 1, ptr %4, align 8
  %5 = getelementptr inbounds nuw i8, ptr %0, i64 40
  store ptr %1, ptr %5, align 8
  %6 = zext i32 %2 to i64
  %7 = getelementptr inbounds nuw i8, ptr %0, i64 32
  store i64 %6, ptr %7, align 8
  ret void
}